; Function Attrs: mustprogress nofree norecurse nosync nounwind willreturn memory(read, inaccessiblemem: none) uwtable
define internal range(i32 0, 19) i32 @HIDAPI_DriverPS4_GetJoystickCapabilities(ptr noundef readonly captures(none) %0, ptr readnone captures(none) %1) #2 {
  %3 = getelementptr inbounds nuw i8, ptr %0, i64 112
  %4 = load ptr, ptr %3, align 8
  %5 = getelementptr inbounds nuw i8, ptr %4, i64 30
  %6 = load i8, ptr %5, align 2, !range !5, !noundef !6
  %7 = trunc nuw i8 %6 to i1
  br i1 %7, label %8, label %15

8:                                                ; preds = %2
  %9 = getelementptr inbounds nuw i8, ptr %4, i64 20
  %10 = load i8, ptr %9, align 4, !range !5, !noundef !6
  %11 = shl nuw nsw i8 %10, 1
  %12 = getelementptr inbounds nuw i8, ptr %4, i64 21
  %13 = load i8, ptr %12, align 1, !range !5, !noundef !6
  %14 = shl nuw nsw i8 %13, 4
  %spec.select67 = or disjoint i8 %14, %11
  %spec.select6 = zext nneg i8 %spec.select67 to i32
  br label %15

15:                                               ; preds = %8, %2
  %.0 = phi i32 [ 0, %2 ], [ %spec.select6, %8 ]
  ret i32 %.0
}